target datalayout = "e-m:e-p270:32:32-p271:32:32-p272:64:64-i64:64-i128:128-f80:128-n8:16:32:64-S128"
target triple = "x86_64-pc-linux-gnu"

%struct.Aig_Man_t_ = type { ptr, ptr, ptr, ptr, ptr, ptr, ptr, %struct.Aig_Obj_t_, i32, i32, i32, i32, i32, i32, [7 x i32], i32, ptr, i32, ptr, i32, ptr, i32, i32, i32, ptr, i32, i32, i32, i32, i32, ptr, ptr, i32, ptr, ptr, i32, ptr, ptr, i32, i32, i32, ptr, ptr, ptr, ptr, ptr, ptr, ptr, ptr, ptr, ptr, ptr, ptr, ptr, ptr, i32, ptr, ptr, ptr, ptr, i32, i64, i64, i64, ptr, ptr }
%struct.Aig_Obj_t_ = type { %union.anon, ptr, ptr, i64, i32, i32, %union.anon.0 }
%union.anon = type { ptr }
%union.anon.0 = type { ptr }

; Function Attrs: nounwind uwtable
define void @Aig_ObjOrderRemove(ptr noundef %0, i32 noundef %1) #0 {
  %3 = alloca ptr, align 8
  %4 = alloca i32, align 4
  %5 = alloca i32, align 4
  %6 = alloca i32, align 4
  store ptr %0, ptr %3, align 8, !tbaa !3
  store i32 %1, ptr %4, align 4, !tbaa !23
  call void @llvm.lifetime.start.p0(i64 4, ptr %5) #7
  call void @llvm.lifetime.start.p0(i64 4, ptr %6) #7
  %7 = load ptr, ptr %3, align 8, !tbaa !3
  %8 = getelementptr inbounds nuw %struct.Aig_Man_t_, ptr %7, i32 0, i32 24
  %9 = load ptr, ptr %8, align 8, !tbaa !22
  %10 = load i32, ptr %4, align 4, !tbaa !23
  %11 = mul nsw i32 2, %10
  %12 = sext i32 %11 to i64
  %13 = getelementptr inbounds i32, ptr %9, i64 %12
  %14 = load i32, ptr %13, align 4, !tbaa !23
  store i32 %14, ptr %5, align 4, !tbaa !23
  %15 = load ptr, ptr %3, align 8, !tbaa !3
  %16 = getelementptr inbounds nuw %struct.Aig_Man_t_, ptr %15, i32 0, i32 24
  %17 = load ptr, ptr %16, align 8, !tbaa !22
  %18 = load i32, ptr %4, align 4, !tbaa !23
  %19 = mul nsw i32 2, %18
  %20 = add nsw i32 %19, 1
  %21 = sext i32 %20 to i64
  %22 = getelementptr inbounds i32, ptr %17, i64 %21
  %23 = load i32, ptr %22, align 4, !tbaa !23
  store i32 %23, ptr %6, align 4, !tbaa !23
  %24 = load ptr, ptr %3, align 8, !tbaa !3
  %25 = getelementptr inbounds nuw %struct.Aig_Man_t_, ptr %24, i32 0, i32 24
  %26 = load ptr, ptr %25, align 8, !tbaa !22
  %27 = load i32, ptr %4, align 4, !tbaa !23
  %28 = mul nsw i32 2, %27
  %29 = sext i32 %28 to i64
  %30 = getelementptr inbounds i32, ptr %26, i64 %29
  store i32 -1, ptr %30, align 4, !tbaa !23
  %31 = load ptr, ptr %3, align 8, !tbaa !3
  %32 = getelementptr inbounds nuw %struct.Aig_Man_t_, ptr %31, i32 0, i32 24
  %33 = load ptr, ptr %32, align 8, !tbaa !22
  %34 = load i32, ptr %4, align 4, !tbaa !23
  %35 = mul nsw i32 2, %34
  %36 = add nsw i32 %35, 1
  %37 = sext i32 %36 to i64
  %38 = getelementptr inbounds i32, ptr %33, i64 %37
  store i32 -1, ptr %38, align 4, !tbaa !23
  %39 = load i32, ptr %5, align 4, !tbaa !23
  %40 = load ptr, ptr %3, align 8, !tbaa !3
  %41 = getelementptr inbounds nuw %struct.Aig_Man_t_, ptr %40, i32 0, i32 24
  %42 = load ptr, ptr %41, align 8, !tbaa !22
  %43 = load i32, ptr %6, align 4, !tbaa !23
  %44 = mul nsw i32 2, %43
  %45 = sext i32 %44 to i64
  %46 = getelementptr inbounds i32, ptr %42, i64 %45
  store i32 %39, ptr %46, align 4, !tbaa !23
  %47 = load i32, ptr %6, align 4, !tbaa !23
  %48 = load ptr, ptr %3, align 8, !tbaa !3
  %49 = getelementptr inbounds nuw %struct.Aig_Man_t_, ptr %48, i32 0, i32 24
  %50 = load ptr, ptr %49, align 8, !tbaa !22
  %51 = load i32, ptr %5, align 4, !tbaa !23
  %52 = mul nsw i32 2, %51
  %53 = add nsw i32 %52, 1
  %54 = sext i32 %53 to i64
  %55 = getelementptr inbounds i32, ptr %50, i64 %54
  store i32 %47, ptr %55, align 4, !tbaa !23
  %56 = load ptr, ptr %3, align 8, !tbaa !3
  %57 = getelementptr inbounds nuw %struct.Aig_Man_t_, ptr %56, i32 0, i32 26
  %58 = load i32, ptr %57, align 4, !tbaa !25
  %59 = load i32, ptr %4, align 4, !tbaa !23
  %60 = icmp eq i32 %58, %59
  br i1 %60, label %61, label %69

61:                                               ; preds = %2
  %62 = load ptr, ptr %3, align 8, !tbaa !3
  %63 = getelementptr inbounds nuw %struct.Aig_Man_t_, ptr %62, i32 0, i32 29
  %64 = load i32, ptr %63, align 8, !tbaa !37
  %65 = add nsw i32 %64, -1
  store i32 %65, ptr %63, align 8, !tbaa !37
  %66 = load i32, ptr %5, align 4, !tbaa !23
  %67 = load ptr, ptr %3, align 8, !tbaa !3
  %68 = getelementptr inbounds nuw %struct.Aig_Man_t_, ptr %67, i32 0, i32 26
  store i32 %66, ptr %68, align 4, !tbaa !25
  br label %69

69:                                               ; preds = %61, %2
  %70 = load ptr, ptr %3, align 8, !tbaa !3
  %71 = getelementptr inbounds nuw %struct.Aig_Man_t_, ptr %70, i32 0, i32 27
  %72 = load i32, ptr %71, align 8, !tbaa !24
  %73 = load i32, ptr %4, align 4, !tbaa !23
  %74 = icmp eq i32 %72, %73
  br i1 %74, label %75, label %79

75:                                               ; preds = %69
  %76 = load i32, ptr %6, align 4, !tbaa !23
  %77 = load ptr, ptr %3, align 8, !tbaa !3
  %78 = getelementptr inbounds nuw %struct.Aig_Man_t_, ptr %77, i32 0, i32 27
  store i32 %76, ptr %78, align 8, !tbaa !24
  br label %79

79:                                               ; preds = %75, %69
  %80 = load ptr, ptr %3, align 8, !tbaa !3
  %81 = getelementptr inbounds nuw %struct.Aig_Man_t_, ptr %80, i32 0, i32 28
  %82 = load i32, ptr %81, align 4, !tbaa !36
  %83 = add nsw i32 %82, -1
  store i32 %83, ptr %81, align 4, !tbaa !36
  call void @llvm.lifetime.end.p0(i64 4, ptr %6) #7
  call void @llvm.lifetime.end.p0(i64 4, ptr %5) #7
  ret void
}