; Function Attrs: mustprogress nofree norecurse nosync nounwind willreturn memory(readwrite, inaccessiblemem: none) uwtable
define void @Aig_ObjOrderRemove(ptr noundef captures(none) %0, i32 noundef %1) local_unnamed_addr #6 {
  %3 = getelementptr inbounds nuw i8, ptr %0, i64 216
  %4 = load ptr, ptr %3, align 8, !tbaa !24
  %5 = shl nsw i32 %1, 1
  %6 = sext i32 %5 to i64
  %7 = getelementptr inbounds i32, ptr %4, i64 %6
  %8 = load i32, ptr %7, align 4, !tbaa !25
  %9 = or disjoint i32 %5, 1
  %10 = sext i32 %9 to i64
  %11 = getelementptr inbounds i32, ptr %4, i64 %10
  %12 = load i32, ptr %11, align 4, !tbaa !25
  store i32 -1, ptr %7, align 4, !tbaa !25
  store i32 -1, ptr %11, align 4, !tbaa !25
  %13 = shl nsw i32 %12, 1
  %14 = sext i32 %13 to i64
  %15 = getelementptr inbounds i32, ptr %4, i64 %14
  store i32 %8, ptr %15, align 4, !tbaa !25
  %16 = shl nsw i32 %8, 1
  %17 = or disjoint i32 %16, 1
  %18 = sext i32 %17 to i64
  %19 = getelementptr inbounds i32, ptr %4, i64 %18
  store i32 %12, ptr %19, align 4, !tbaa !25
  %20 = getelementptr inbounds nuw i8, ptr %0, i64 228
  %21 = load i32, ptr %20, align 4, !tbaa !27
  %22 = icmp eq i32 %21, %1
  br i1 %22, label %23, label %27

23:                                               ; preds = %2
  %24 = getelementptr inbounds nuw i8, ptr %0, i64 240
  %25 = load i32, ptr %24, align 8, !tbaa !34
  %26 = add nsw i32 %25, -1
  store i32 %26, ptr %24, align 8, !tbaa !34
  store i32 %8, ptr %20, align 4, !tbaa !27
  br label %27

27:                                               ; preds = %23, %2
  %28 = getelementptr inbounds nuw i8, ptr %0, i64 232
  %29 = load i32, ptr %28, align 8, !tbaa !26
  %30 = icmp eq i32 %29, %1
  br i1 %30, label %31, label %32

31:                                               ; preds = %27
  store i32 %12, ptr %28, align 8, !tbaa !26
  br label %32

32:                                               ; preds = %31, %27
  %33 = getelementptr inbounds nuw i8, ptr %0, i64 236
  %34 = load i32, ptr %33, align 4, !tbaa !31
  %35 = add nsw i32 %34, -1
  store i32 %35, ptr %33, align 4, !tbaa !31
  ret void
}